(dp0
S'show_imports'
p1
I0
sS'prj_name'
p2
S''
p3
sS'docformat'
p4
S'epytext'
p5
sS'inheritance'
p6
S'grouped'
p7
sS'help'
p8
NsS'modules'
p9
(S'/Users/ljiang/git/RallyAutomation2/RallyAutomation/src/test/run/build.py'
p10
S'/Users/ljiang/git/RallyAutomation2/RallyAutomation/src/test/run/buildDefinition.py'
p11
S'/Users/ljiang/git/RallyAutomation2/RallyAutomation/src/test/run/check.py'
p12
S'/Users/ljiang/git/RallyAutomation2/RallyAutomation/src/test/run/constants.py'
p13
S'/Users/ljiang/git/RallyAutomation2/RallyAutomation/src/test/run/defect.py'
p14
S'/Users/ljiang/git/RallyAutomation2/RallyAutomation/src/test/run/extractAPI.py'
p15
S'/Users/ljiang/git/RallyAutomation2/RallyAutomation/src/test/run/helper.py'
p16
S'/Users/ljiang/git/RallyAutomation2/RallyAutomation/src/test/run/jenkinsNotifier.py'
p17
S'/Users/ljiang/git/RallyAutomation2/RallyAutomation/src/test/run/mainFuncs.py'
p18
S'/Users/ljiang/git/RallyAutomation2/RallyAutomation/src/test/run/notification.py'
p19
S'/Users/ljiang/git/RallyAutomation2/RallyAutomation/src/test/run/rallyLogger.py'
p20
S'/Users/ljiang/git/RallyAutomation2/RallyAutomation/src/test/run/reporting.py'
p21
S'/Users/ljiang/git/RallyAutomation2/RallyAutomation/src/test/run/sqlConnector.py'
p22
S'/Users/ljiang/git/RallyAutomation2/RallyAutomation/src/test/run/sqlFunctions.py'
p23
S'/Users/ljiang/git/RallyAutomation2/RallyAutomation/src/test/run/ssh.py'
p24
S'/Users/ljiang/git/RallyAutomation2/RallyAutomation/src/test/run/testObject.py'
p25
S'/Users/ljiang/git/RallyAutomation2/RallyAutomation/src/test/run/testCase.py'
p26
S'/Users/ljiang/git/RallyAutomation2/RallyAutomation/src/test/run/testCaseResult.py'
p27
S'/Users/ljiang/git/RallyAutomation2/RallyAutomation/src/test/run/testCaseStep.py'
p28
S'/Users/ljiang/git/RallyAutomation2/RallyAutomation/src/test/run/testFolder.py'
p29
S'/Users/ljiang/git/RallyAutomation2/RallyAutomation/src/test/run/testSet.py'
p30
S'/Users/ljiang/git/RallyAutomation2/RallyAutomation/src/test/run/user.py'
p31
tp32
sS'private'
p33
I1
sS'prj_url'
p34
NsS'introspect_or_parse'
p35
S'both'
p36
sS'frames'
p37
I1
sS'css'
p38
S'default'
p39
sS'target'
p40
S'html'
p41
s.